; Function Attrs: mustprogress nounwind uwtable
define dso_local noundef zeroext i1 @_ZNK4llvm15TargetInstrInfo22isMBBSafeToOutlineFromERNS_17MachineBasicBlockERj(ptr nocapture nonnull readnone align 8 %0, ptr noundef nonnull align 8 dereferenceable(288) %1, ptr nocapture nonnull readnone align 4 %2) unnamed_addr #0 align 2 {
  %4 = alloca %"class.llvm::MachineInstrBundleIterator", align 8
  %5 = tail call ptr @_ZN4llvm17MachineBasicBlock21getFirstNonDebugInstrEb(ptr noundef nonnull align 8 dereferenceable(288) %1, i1 noundef zeroext true) #26
  %6 = getelementptr inbounds i8, ptr %1, i64 48
  %7 = icmp eq ptr %5, %6
  br i1 %7, label %25, label %8

8:                                                ; preds = %3
  %9 = getelementptr inbounds nuw i8, ptr %5, i64 68
  %10 = load i16, ptr %9, align 4
  switch i16 %10, label %11 [
    i16 26, label %25
    i16 35, label %25
  ]

11:                                               ; preds = %8
  %12 = tail call ptr @_ZN4llvm17MachineBasicBlock20getLastNonDebugInstrEb(ptr noundef nonnull align 8 dereferenceable(288) %1, i1 noundef zeroext true) #26
  store ptr %12, ptr %4, align 8
  %13 = getelementptr inbounds nuw i8, ptr %12, i64 68
  %14 = load i16, ptr %13, align 4
  switch i16 %14, label %15 [
    i16 36, label %25
    i16 38, label %25
  ]

15:                                               ; preds = %11
  %.not = icmp eq ptr %12, %5
  br i1 %.not, label %24, label %16

16:                                               ; preds = %15
  %17 = tail call noundef zeroext i1 @_ZNK4llvm12MachineInstr8isReturnENS0_9QueryTypeE(ptr noundef nonnull align 8 dereferenceable(70) %12, i32 noundef 1)
  br i1 %17, label %18, label %24

18:                                               ; preds = %16
  %19 = call noundef nonnull align 8 dereferenceable(8) ptr @_ZN4llvm26MachineInstrBundleIteratorINS_12MachineInstrELb0EEmmEv(ptr noundef nonnull align 8 dereferenceable(8) %4)
  %20 = load ptr, ptr %4, align 8
  %21 = getelementptr inbounds nuw i8, ptr %20, i64 68
  %22 = load i16, ptr %21, align 4
  %23 = zext i16 %22 to i32
  %.off = add nsw i32 %23, -37
  %switch = icmp ult i32 %.off, 2
  br i1 %switch, label %25, label %24

24:                                               ; preds = %18, %16, %15
  br label %25

25:                                               ; preds = %18, %11, %11, %8, %8, %3, %24
  %.0 = phi i1 [ true, %24 ], [ true, %3 ], [ false, %8 ], [ false, %11 ], [ false, %8 ], [ false, %11 ], [ false, %18 ]
  ret i1 %.0
}